target datalayout = "e-m:e-p270:32:32-p271:32:32-p272:64:64-i64:64-i128:128-f80:128-n8:16:32:64-S128"
target triple = "x86_64-pc-linux-gnu"

%struct.dt_masks_form_gui_t = type { ptr, ptr, ptr, i32, float, float, float, float, float, float, float, float, i32, i32, i32, i32, i32, i32, i32, i32, i32, i32, i32, i32, i32, i32, i32, i32, i32, i32, i32, i32, i32, i32, float, float, i32, i32, i32, i32, i32, i32, ptr, ptr, i32, i32, i64 }

@.str.4 = private unnamed_addr constant [86 x i8] c"<b>size</b>: scroll, <b>hardness</b>: shift+scroll\0A<b>opacity</b>: ctrl+scroll (%d%%)\00", align 1
@.str.5 = private unnamed_addr constant [20 x i8] c"<b>size</b>: scroll\00", align 1

; Function Attrs: nounwind uwtable
define internal void @_brush_set_hint_message(ptr noundef %0, ptr noundef %1, i32 noundef %2, ptr noalias noundef %3, i64 noundef %4) #0 {
  %6 = alloca ptr, align 8
  %7 = alloca ptr, align 8
  %8 = alloca i32, align 4
  %9 = alloca ptr, align 8
  %10 = alloca i64, align 8
  store ptr %0, ptr %6, align 8, !tbaa !17
  store ptr %1, ptr %7, align 8, !tbaa !10
  store i32 %2, ptr %8, align 4, !tbaa !6
  store ptr %3, ptr %9, align 8, !tbaa !19
  store i64 %4, ptr %10, align 8, !tbaa !15
  %11 = load ptr, ptr %6, align 8, !tbaa !17
  %12 = getelementptr inbounds nuw %struct.dt_masks_form_gui_t, ptr %11, i32 0, i32 39
  %13 = load i32, ptr %12, align 8, !tbaa !21
  %14 = icmp ne i32 %13, 0
  br i1 %14, label %20, label %15

15:                                               ; preds = %5
  %16 = load ptr, ptr %6, align 8, !tbaa !17
  %17 = getelementptr inbounds nuw %struct.dt_masks_form_gui_t, ptr %16, i32 0, i32 12
  %18 = load i32, ptr %17, align 4, !tbaa !27
  %19 = icmp ne i32 %18, 0
  br i1 %19, label %20, label %26

20:                                               ; preds = %15, %5
  %21 = load ptr, ptr %9, align 8, !tbaa !19
  %22 = load i64, ptr %10, align 8, !tbaa !15
  %23 = call ptr @dcgettext(ptr noundef null, ptr noundef @.str.4, i32 noundef 5) #14
  %24 = load i32, ptr %8, align 4, !tbaa !6
  %25 = call i32 (ptr, i64, ptr, ...) @g_snprintf(ptr noundef %21, i64 noundef %22, ptr noundef %23, i32 noundef %24)
  br label %37

26:                                               ; preds = %15
  %27 = load ptr, ptr %6, align 8, !tbaa !17
  %28 = getelementptr inbounds nuw %struct.dt_masks_form_gui_t, ptr %27, i32 0, i32 13
  %29 = load i32, ptr %28, align 8, !tbaa !28
  %30 = icmp ne i32 %29, 0
  br i1 %30, label %31, label %36

31:                                               ; preds = %26
  %32 = load ptr, ptr %9, align 8, !tbaa !19
  %33 = call ptr @dcgettext(ptr noundef null, ptr noundef @.str.5, i32 noundef 5) #14
  %34 = load i64, ptr %10, align 8, !tbaa !15
  %35 = call i64 @g_strlcat(ptr noundef %32, ptr noundef %33, i64 noundef %34)
  br label %36

36:                                               ; preds = %31, %26
  br label %37

37:                                               ; preds = %36, %20
  ret void
}