; Function Attrs: nounwind uwtable
define internal void @_brush_set_hint_message(ptr noundef readonly captures(none) %0, ptr readnone captures(none) %1, i32 noundef %2, ptr noalias noundef %3, i64 noundef %4) #1 {
  %6 = getelementptr inbounds nuw i8, ptr %0, i64 168
  %7 = load i32, ptr %6, align 8, !tbaa !6
  %.not = icmp eq i32 %7, 0
  br i1 %.not, label %8, label %11

8:                                                ; preds = %5
  %9 = getelementptr inbounds nuw i8, ptr %0, i64 60
  %10 = load i32, ptr %9, align 4, !tbaa !17
  %.not7 = icmp eq i32 %10, 0
  br i1 %.not7, label %14, label %11

11:                                               ; preds = %8, %5
  %12 = tail call ptr @dcgettext(ptr noundef null, ptr noundef nonnull @.str.4, i32 noundef 5) #19
  %13 = tail call i32 (ptr, i64, ptr, ...) @g_snprintf(ptr noundef %3, i64 noundef %4, ptr noundef %12, i32 noundef %2) #19
  br label %20

14:                                               ; preds = %8
  %15 = getelementptr inbounds nuw i8, ptr %0, i64 64
  %16 = load i32, ptr %15, align 8, !tbaa !18
  %.not8 = icmp eq i32 %16, 0
  br i1 %.not8, label %20, label %17

17:                                               ; preds = %14
  %18 = tail call ptr @dcgettext(ptr noundef null, ptr noundef nonnull @.str.5, i32 noundef 5) #19
  %19 = tail call i64 @g_strlcat(ptr noundef %3, ptr noundef %18, i64 noundef %4) #19
  br label %20

20:                                               ; preds = %14, %17, %11
  ret void
}